target datalayout = "e-m:e-p270:32:32-p271:32:32-p272:64:64-i64:64-i128:128-f80:128-n8:16:32:64-S128"
target triple = "x86_64-pc-linux-gnu"

%struct.rlc_channel = type { i32, i16, i16, i8, i16, i8, i8, i32, i32 }
%struct.rlc_frag = type { i32, %struct.rlc_channel, i16, i16, i16, ptr, ptr }

; Function Attrs: nounwind null_pointer_is_valid sspstrong uwtable
define internal i32 @rlc_channel_equal(ptr noundef %0, ptr noundef %1) #10 {
  %3 = alloca i32, align 4
  %4 = alloca ptr, align 8
  %5 = alloca ptr, align 8
  %6 = alloca ptr, align 8
  %7 = alloca ptr, align 8
  %8 = alloca i32, align 4
  store ptr %0, ptr %4, align 8
  store ptr %1, ptr %5, align 8
  call void @llvm.lifetime.start.p0(i64 8, ptr %6) #18
  %9 = load ptr, ptr %4, align 8
  store ptr %9, ptr %6, align 8
  call void @llvm.lifetime.start.p0(i64 8, ptr %7) #18
  %10 = load ptr, ptr %5, align 8
  store ptr %10, ptr %7, align 8
  %11 = load ptr, ptr %6, align 8
  %12 = getelementptr inbounds nuw %struct.rlc_channel, ptr %11, i32 0, i32 0
  %13 = load i32, ptr %12, align 4
  %14 = icmp ne i32 %13, 0
  br i1 %14, label %20, label %15

15:                                               ; preds = %2
  %16 = load ptr, ptr %7, align 8
  %17 = getelementptr inbounds nuw %struct.rlc_channel, ptr %16, i32 0, i32 0
  %18 = load i32, ptr %17, align 4
  %19 = icmp ne i32 %18, 0
  br i1 %19, label %20, label %59

20:                                               ; preds = %15, %2
  %21 = load ptr, ptr %6, align 8
  %22 = getelementptr inbounds nuw %struct.rlc_channel, ptr %21, i32 0, i32 0
  %23 = load i32, ptr %22, align 4
  %24 = load ptr, ptr %7, align 8
  %25 = getelementptr inbounds nuw %struct.rlc_channel, ptr %24, i32 0, i32 0
  %26 = load i32, ptr %25, align 4
  %27 = icmp eq i32 %23, %26
  br i1 %27, label %28, label %56

28:                                               ; preds = %20
  %29 = load ptr, ptr %6, align 8
  %30 = getelementptr inbounds nuw %struct.rlc_channel, ptr %29, i32 0, i32 5
  %31 = load i8, ptr %30, align 4
  %32 = zext i8 %31 to i32
  %33 = load ptr, ptr %7, align 8
  %34 = getelementptr inbounds nuw %struct.rlc_channel, ptr %33, i32 0, i32 5
  %35 = load i8, ptr %34, align 4
  %36 = zext i8 %35 to i32
  %37 = icmp eq i32 %32, %36
  br i1 %37, label %38, label %56

38:                                               ; preds = %28
  %39 = load ptr, ptr %6, align 8
  %40 = getelementptr inbounds nuw %struct.rlc_channel, ptr %39, i32 0, i32 8
  %41 = load i32, ptr %40, align 4
  %42 = load ptr, ptr %7, align 8
  %43 = getelementptr inbounds nuw %struct.rlc_channel, ptr %42, i32 0, i32 8
  %44 = load i32, ptr %43, align 4
  %45 = icmp eq i32 %41, %44
  br i1 %45, label %46, label %56

46:                                               ; preds = %38
  %47 = load ptr, ptr %6, align 8
  %48 = getelementptr inbounds nuw %struct.rlc_channel, ptr %47, i32 0, i32 6
  %49 = load i8, ptr %48, align 1
  %50 = zext i8 %49 to i32
  %51 = load ptr, ptr %7, align 8
  %52 = getelementptr inbounds nuw %struct.rlc_channel, ptr %51, i32 0, i32 6
  %53 = load i8, ptr %52, align 1
  %54 = zext i8 %53 to i32
  %55 = icmp eq i32 %50, %54
  br label %56

56:                                               ; preds = %46, %38, %28, %20
  %57 = phi i1 [ false, %38 ], [ false, %28 ], [ false, %20 ], [ %55, %46 ]
  %58 = select i1 %57, i32 1, i32 0
  store i32 %58, ptr %3, align 4
  store i32 1, ptr %8, align 4
  br label %130

59:                                               ; preds = %15
  %60 = load ptr, ptr %6, align 8
  %61 = getelementptr inbounds nuw %struct.rlc_channel, ptr %60, i32 0, i32 1
  %62 = load i16, ptr %61, align 4
  %63 = zext i16 %62 to i32
  %64 = load ptr, ptr %7, align 8
  %65 = getelementptr inbounds nuw %struct.rlc_channel, ptr %64, i32 0, i32 1
  %66 = load i16, ptr %65, align 4
  %67 = zext i16 %66 to i32
  %68 = icmp eq i32 %63, %67
  br i1 %68, label %69, label %127

69:                                               ; preds = %59
  %70 = load ptr, ptr %6, align 8
  %71 = getelementptr inbounds nuw %struct.rlc_channel, ptr %70, i32 0, i32 2
  %72 = load i16, ptr %71, align 2
  %73 = zext i16 %72 to i32
  %74 = load ptr, ptr %7, align 8
  %75 = getelementptr inbounds nuw %struct.rlc_channel, ptr %74, i32 0, i32 2
  %76 = load i16, ptr %75, align 2
  %77 = zext i16 %76 to i32
  %78 = icmp eq i32 %73, %77
  br i1 %78, label %79, label %127

79:                                               ; preds = %69
  %80 = load ptr, ptr %6, align 8
  %81 = getelementptr inbounds nuw %struct.rlc_channel, ptr %80, i32 0, i32 3
  %82 = load i8, ptr %81, align 4
  %83 = zext i8 %82 to i32
  %84 = load ptr, ptr %7, align 8
  %85 = getelementptr inbounds nuw %struct.rlc_channel, ptr %84, i32 0, i32 3
  %86 = load i8, ptr %85, align 4
  %87 = zext i8 %86 to i32
  %88 = icmp eq i32 %83, %87
  br i1 %88, label %89, label %127

89:                                               ; preds = %79
  %90 = load ptr, ptr %6, align 8
  %91 = getelementptr inbounds nuw %struct.rlc_channel, ptr %90, i32 0, i32 5
  %92 = load i8, ptr %91, align 4
  %93 = zext i8 %92 to i32
  %94 = load ptr, ptr %7, align 8
  %95 = getelementptr inbounds nuw %struct.rlc_channel, ptr %94, i32 0, i32 5
  %96 = load i8, ptr %95, align 4
  %97 = zext i8 %96 to i32
  %98 = icmp eq i32 %93, %97
  br i1 %98, label %99, label %127

99:                                               ; preds = %89
  %100 = load ptr, ptr %6, align 8
  %101 = getelementptr inbounds nuw %struct.rlc_channel, ptr %100, i32 0, i32 8
  %102 = load i32, ptr %101, align 4
  %103 = load ptr, ptr %7, align 8
  %104 = getelementptr inbounds nuw %struct.rlc_channel, ptr %103, i32 0, i32 8
  %105 = load i32, ptr %104, align 4
  %106 = icmp eq i32 %102, %105
  br i1 %106, label %107, label %127

107:                                              ; preds = %99
  %108 = load ptr, ptr %6, align 8
  %109 = getelementptr inbounds nuw %struct.rlc_channel, ptr %108, i32 0, i32 6
  %110 = load i8, ptr %109, align 1
  %111 = zext i8 %110 to i32
  %112 = load ptr, ptr %7, align 8
  %113 = getelementptr inbounds nuw %struct.rlc_channel, ptr %112, i32 0, i32 6
  %114 = load i8, ptr %113, align 1
  %115 = zext i8 %114 to i32
  %116 = icmp eq i32 %111, %115
  br i1 %116, label %117, label %127

117:                                              ; preds = %107
  %118 = load ptr, ptr %6, align 8
  %119 = getelementptr inbounds nuw %struct.rlc_channel, ptr %118, i32 0, i32 4
  %120 = load i16, ptr %119, align 2
  %121 = zext i16 %120 to i32
  %122 = load ptr, ptr %7, align 8
  %123 = getelementptr inbounds nuw %struct.rlc_channel, ptr %122, i32 0, i32 4
  %124 = load i16, ptr %123, align 2
  %125 = zext i16 %124 to i32
  %126 = icmp eq i32 %121, %125
  br label %127

127:                                              ; preds = %117, %107, %99, %89, %79, %69, %59
  %128 = phi i1 [ false, %107 ], [ false, %99 ], [ false, %89 ], [ false, %79 ], [ false, %69 ], [ false, %59 ], [ %126, %117 ]
  %129 = select i1 %128, i32 1, i32 0
  store i32 %129, ptr %3, align 4
  store i32 1, ptr %8, align 4
  br label %130

130:                                              ; preds = %127, %56
  call void @llvm.lifetime.end.p0(i64 8, ptr %7) #18
  call void @llvm.lifetime.end.p0(i64 8, ptr %6) #18
  %131 = load i32, ptr %3, align 4
  ret i32 %131
}

; Function Attrs: nounwind null_pointer_is_valid sspstrong uwtable
define internal i32 @rlc_frag_equal(ptr noundef %0, ptr noundef %1) #10 {
  %3 = alloca ptr, align 8
  %4 = alloca ptr, align 8
  %5 = alloca ptr, align 8
  %6 = alloca ptr, align 8
  store ptr %0, ptr %3, align 8
  store ptr %1, ptr %4, align 8
  call void @llvm.lifetime.start.p0(i64 8, ptr %5) #18
  %7 = load ptr, ptr %3, align 8
  store ptr %7, ptr %5, align 8
  call void @llvm.lifetime.start.p0(i64 8, ptr %6) #18
  %8 = load ptr, ptr %4, align 8
  store ptr %8, ptr %6, align 8
  %9 = load ptr, ptr %5, align 8
  %10 = getelementptr inbounds nuw %struct.rlc_frag, ptr %9, i32 0, i32 1
  %11 = load ptr, ptr %6, align 8
  %12 = getelementptr inbounds nuw %struct.rlc_frag, ptr %11, i32 0, i32 1
  %13 = call i32 @rlc_channel_equal(ptr noundef %10, ptr noundef %12)
  %14 = icmp ne i32 %13, 0
  br i1 %14, label %15, label %43

15:                                               ; preds = %2
  %16 = load ptr, ptr %5, align 8
  %17 = getelementptr inbounds nuw %struct.rlc_frag, ptr %16, i32 0, i32 2
  %18 = load i16, ptr %17, align 4
  %19 = zext i16 %18 to i32
  %20 = load ptr, ptr %6, align 8
  %21 = getelementptr inbounds nuw %struct.rlc_frag, ptr %20, i32 0, i32 2
  %22 = load i16, ptr %21, align 4
  %23 = zext i16 %22 to i32
  %24 = icmp eq i32 %19, %23
  br i1 %24, label %25, label %43

25:                                               ; preds = %15
  %26 = load ptr, ptr %5, align 8
  %27 = getelementptr inbounds nuw %struct.rlc_frag, ptr %26, i32 0, i32 0
  %28 = load i32, ptr %27, align 8
  %29 = load ptr, ptr %6, align 8
  %30 = getelementptr inbounds nuw %struct.rlc_frag, ptr %29, i32 0, i32 0
  %31 = load i32, ptr %30, align 8
  %32 = icmp eq i32 %28, %31
  br i1 %32, label %33, label %43

33:                                               ; preds = %25
  %34 = load ptr, ptr %5, align 8
  %35 = getelementptr inbounds nuw %struct.rlc_frag, ptr %34, i32 0, i32 3
  %36 = load i16, ptr %35, align 2
  %37 = zext i16 %36 to i32
  %38 = load ptr, ptr %6, align 8
  %39 = getelementptr inbounds nuw %struct.rlc_frag, ptr %38, i32 0, i32 3
  %40 = load i16, ptr %39, align 2
  %41 = zext i16 %40 to i32
  %42 = icmp eq i32 %37, %41
  br label %43

43:                                               ; preds = %33, %25, %15, %2
  %44 = phi i1 [ false, %25 ], [ false, %15 ], [ false, %2 ], [ %42, %33 ]
  %45 = select i1 %44, i32 1, i32 0
  call void @llvm.lifetime.end.p0(i64 8, ptr %6) #18
  call void @llvm.lifetime.end.p0(i64 8, ptr %5) #18
  ret i32 %45
}