; Function Attrs: mustprogress nofree norecurse nosync nounwind null_pointer_is_valid sspstrong willreturn memory(argmem: read) uwtable
define internal range(i32 0, 2) i32 @rlc_frag_equal(ptr noundef readonly captures(none) %0, ptr noundef readonly captures(none) %1) #9 {
  %3 = getelementptr inbounds nuw i8, ptr %0, i64 4
  %4 = getelementptr inbounds nuw i8, ptr %1, i64 4
  %5 = load i32, ptr %3, align 4
  %.not.i = icmp eq i32 %5, 0
  %.pre.i = load i32, ptr %4, align 4
  %.not26.i = icmp eq i32 %.pre.i, 0
  %or.cond.i = select i1 %.not.i, i1 %.not26.i, i1 false
  br i1 %or.cond.i, label %26, label %6

6:                                                ; preds = %2
  %7 = icmp eq i32 %5, %.pre.i
  br i1 %7, label %8, label %rlc_channel_equal.exit.thread

8:                                                ; preds = %6
  %9 = getelementptr inbounds nuw i8, ptr %0, i64 16
  %10 = load i8, ptr %9, align 4
  %11 = getelementptr inbounds nuw i8, ptr %1, i64 16
  %12 = load i8, ptr %11, align 4
  %13 = icmp eq i8 %10, %12
  br i1 %13, label %14, label %rlc_channel_equal.exit.thread

14:                                               ; preds = %8
  %15 = getelementptr inbounds nuw i8, ptr %0, i64 24
  %16 = load i32, ptr %15, align 4
  %17 = getelementptr inbounds nuw i8, ptr %1, i64 24
  %18 = load i32, ptr %17, align 4
  %19 = icmp eq i32 %16, %18
  br i1 %19, label %20, label %rlc_channel_equal.exit.thread

20:                                               ; preds = %14
  %21 = getelementptr inbounds nuw i8, ptr %0, i64 17
  %22 = load i8, ptr %21, align 1
  %23 = getelementptr inbounds nuw i8, ptr %1, i64 17
  %24 = load i8, ptr %23, align 1
  %25 = icmp eq i8 %22, %24
  br i1 %25, label %67, label %rlc_channel_equal.exit.thread

26:                                               ; preds = %2
  %27 = getelementptr inbounds nuw i8, ptr %0, i64 8
  %28 = load i16, ptr %27, align 4
  %29 = getelementptr inbounds nuw i8, ptr %1, i64 8
  %30 = load i16, ptr %29, align 4
  %31 = icmp eq i16 %28, %30
  br i1 %31, label %32, label %rlc_channel_equal.exit.thread

32:                                               ; preds = %26
  %33 = getelementptr inbounds nuw i8, ptr %0, i64 10
  %34 = load i16, ptr %33, align 2
  %35 = getelementptr inbounds nuw i8, ptr %1, i64 10
  %36 = load i16, ptr %35, align 2
  %37 = icmp eq i16 %34, %36
  br i1 %37, label %38, label %rlc_channel_equal.exit.thread

38:                                               ; preds = %32
  %39 = getelementptr inbounds nuw i8, ptr %0, i64 12
  %40 = load i8, ptr %39, align 4
  %41 = getelementptr inbounds nuw i8, ptr %1, i64 12
  %42 = load i8, ptr %41, align 4
  %43 = icmp eq i8 %40, %42
  br i1 %43, label %44, label %rlc_channel_equal.exit.thread

44:                                               ; preds = %38
  %45 = getelementptr inbounds nuw i8, ptr %0, i64 16
  %46 = load i8, ptr %45, align 4
  %47 = getelementptr inbounds nuw i8, ptr %1, i64 16
  %48 = load i8, ptr %47, align 4
  %49 = icmp eq i8 %46, %48
  br i1 %49, label %50, label %rlc_channel_equal.exit.thread

50:                                               ; preds = %44
  %51 = getelementptr inbounds nuw i8, ptr %0, i64 24
  %52 = load i32, ptr %51, align 4
  %53 = getelementptr inbounds nuw i8, ptr %1, i64 24
  %54 = load i32, ptr %53, align 4
  %55 = icmp eq i32 %52, %54
  br i1 %55, label %56, label %rlc_channel_equal.exit.thread

56:                                               ; preds = %50
  %57 = getelementptr inbounds nuw i8, ptr %0, i64 17
  %58 = load i8, ptr %57, align 1
  %59 = getelementptr inbounds nuw i8, ptr %1, i64 17
  %60 = load i8, ptr %59, align 1
  %61 = icmp eq i8 %58, %60
  br i1 %61, label %rlc_channel_equal.exit, label %rlc_channel_equal.exit.thread

rlc_channel_equal.exit:                           ; preds = %56
  %62 = getelementptr inbounds nuw i8, ptr %0, i64 14
  %63 = load i16, ptr %62, align 2
  %64 = getelementptr inbounds nuw i8, ptr %1, i64 14
  %65 = load i16, ptr %64, align 2
  %66 = icmp eq i16 %63, %65
  br i1 %66, label %67, label %rlc_channel_equal.exit.thread

67:                                               ; preds = %20, %rlc_channel_equal.exit
  %68 = getelementptr inbounds nuw i8, ptr %0, i64 28
  %69 = load i16, ptr %68, align 4
  %70 = getelementptr inbounds nuw i8, ptr %1, i64 28
  %71 = load i16, ptr %70, align 4
  %72 = icmp eq i16 %69, %71
  br i1 %72, label %73, label %rlc_channel_equal.exit.thread

73:                                               ; preds = %67
  %74 = load i32, ptr %0, align 8
  %75 = load i32, ptr %1, align 8
  %76 = icmp eq i32 %74, %75
  br i1 %76, label %77, label %rlc_channel_equal.exit.thread

77:                                               ; preds = %73
  %78 = getelementptr inbounds nuw i8, ptr %0, i64 30
  %79 = load i16, ptr %78, align 2
  %80 = getelementptr inbounds nuw i8, ptr %1, i64 30
  %81 = load i16, ptr %80, align 2
  %82 = icmp eq i16 %79, %81
  %83 = zext i1 %82 to i32
  br label %rlc_channel_equal.exit.thread

rlc_channel_equal.exit.thread:                    ; preds = %20, %26, %32, %38, %44, %50, %56, %6, %8, %14, %77, %73, %67, %rlc_channel_equal.exit
  %84 = phi i32 [ 0, %73 ], [ 0, %67 ], [ 0, %rlc_channel_equal.exit ], [ %83, %77 ], [ 0, %14 ], [ 0, %8 ], [ 0, %6 ], [ 0, %56 ], [ 0, %50 ], [ 0, %44 ], [ 0, %38 ], [ 0, %32 ], [ 0, %26 ], [ 0, %20 ]
  ret i32 %84
}